target datalayout = "e-m:e-p270:32:32-p271:32:32-p272:64:64-i64:64-i128:128-f80:128-n8:16:32:64-S128"
target triple = "x86_64-pc-linux-gnu"

%struct.VVCFrame = type { ptr, ptr, ptr, ptr, ptr, ptr, i32, i32, i32, %struct.VVCWindow, i32, i32, ptr, ptr, i16, i8, ptr }
%struct.VVCWindow = type { i16, i16, i16, i16 }
%struct.VVCFrameContext = type { ptr, [17 x %struct.VVCFrame], ptr, ptr, %struct.VVCFrameParamSets, ptr, i32, i32, ptr, %struct.VVCDSPContext, %struct.VideoDSPContext, ptr, i64, ptr, ptr, ptr, ptr, %struct.anon }
%struct.VVCFrameParamSets = type { ptr, ptr, %struct.VVCPH, [8 x ptr], %struct.VVCLMCS, ptr }
%struct.VVCPH = type { ptr, ptr, i32, i32, i8, [3 x i16], i8, [3 x i16], %struct.PredWeightTable }
%struct.PredWeightTable = type { [2 x i8], [2 x i8], [2 x [2 x [15 x i8]]], [2 x [3 x [15 x i16]]], [2 x [3 x [15 x i16]]] }
%struct.VVCLMCS = type { i8, i8, %union.anon.0, %union.anon.0, [17 x i16], [16 x i16] }
%union.anon.0 = type { [4096 x i16] }
%struct.VVCDSPContext = type { %struct.VVCInterDSPContext, %struct.VVCIntraDSPContext, %struct.VVCItxDSPContext, %struct.VVCLMCSDSPContext, %struct.VVCLFDSPContext, %struct.VVCSAODSPContext, %struct.VVCALFDSPContext }
%struct.VVCInterDSPContext = type { [2 x [7 x [2 x [2 x ptr]]]], [2 x [7 x [2 x [2 x ptr]]]], [2 x [7 x [2 x [2 x ptr]]]], [2 x [7 x ptr]], [2 x [7 x ptr]], [2 x [7 x ptr]], ptr, ptr, ptr, ptr, ptr, ptr, ptr, ptr, ptr, ptr, ptr, [2 x [2 x ptr]] }
%struct.VVCIntraDSPContext = type { ptr, ptr, ptr, ptr, ptr, ptr, ptr, ptr, ptr, ptr }
%struct.VVCItxDSPContext = type { ptr, ptr, [3 x [6 x ptr]], ptr, ptr }
%struct.VVCLMCSDSPContext = type { ptr }
%struct.VVCLFDSPContext = type { [2 x ptr], [2 x ptr], [2 x ptr] }
%struct.VVCSAODSPContext = type { [9 x ptr], [9 x ptr], [2 x ptr] }
%struct.VVCALFDSPContext = type { [2 x ptr], ptr, ptr, ptr }
%struct.VideoDSPContext = type { ptr, ptr }
%struct.anon = type { ptr, ptr, ptr, ptr, [2 x ptr], [2 x ptr], [2 x ptr], [2 x ptr], [2 x ptr], [3 x ptr], ptr, ptr, [2 x ptr], ptr, ptr, [2 x ptr], ptr, ptr, ptr, [2 x ptr], ptr, [3 x ptr], ptr, [2 x ptr], [2 x ptr], [2 x ptr], [2 x [3 x ptr]], [2 x ptr], [2 x ptr], [3 x ptr], [3 x ptr], [3 x [2 x ptr]], [3 x [2 x ptr]], ptr, ptr, ptr, [3 x ptr], %struct.anon.1 }
%struct.anon.1 = type { i32, i32, i32, i32, i32, i32, i32, i32, i32, i32, i32, i32 }

; Function Attrs: nounwind uwtable
define internal void @mark_ref(ptr noundef %0, i32 noundef %1) #0 {
  %3 = alloca ptr, align 8
  %4 = alloca i32, align 4
  store ptr %0, ptr %3, align 8, !tbaa !9
  store i32 %1, ptr %4, align 4, !tbaa !11
  %5 = load ptr, ptr %3, align 8, !tbaa !9
  %6 = getelementptr inbounds nuw %struct.VVCFrame, ptr %5, i32 0, i32 15
  %7 = load i8, ptr %6, align 2, !tbaa !27
  %8 = zext i8 %7 to i32
  %9 = and i32 %8, -7
  %10 = trunc i32 %9 to i8
  store i8 %10, ptr %6, align 2, !tbaa !27
  %11 = load i32, ptr %4, align 4, !tbaa !11
  %12 = load ptr, ptr %3, align 8, !tbaa !9
  %13 = getelementptr inbounds nuw %struct.VVCFrame, ptr %12, i32 0, i32 15
  %14 = load i8, ptr %13, align 2, !tbaa !27
  %15 = zext i8 %14 to i32
  %16 = or i32 %15, %11
  %17 = trunc i32 %16 to i8
  store i8 %17, ptr %13, align 2, !tbaa !27
  ret void
}

; Function Attrs: nounwind uwtable
define i32 @ff_vvc_frame_rpl(ptr noundef %0, ptr noundef %1, ptr noundef %2) #0 {
  %4 = alloca ptr, align 8
  %5 = alloca ptr, align 8
  %6 = alloca ptr, align 8
  %7 = alloca i32, align 4
  %8 = alloca i32, align 4
  %9 = alloca i32, align 4
  %10 = alloca ptr, align 8
  %11 = alloca i32, align 4
  store ptr %0, ptr %4, align 8, !tbaa !73
  store ptr %1, ptr %5, align 8, !tbaa !4
  store ptr %2, ptr %6, align 8, !tbaa !189
  call void @llvm.lifetime.start.p0(i64 4, ptr %7) #7
  store i32 0, ptr %7, align 4, !tbaa !11
  call void @llvm.lifetime.start.p0(i64 4, ptr %8) #7
  store i32 0, ptr %8, align 4, !tbaa !11
  br label %12

12:                                               ; preds = %34, %3
  %13 = load i32, ptr %8, align 4, !tbaa !11
  %14 = sext i32 %13 to i64
  %15 = icmp ult i64 %14, 17
  br i1 %15, label %17, label %16

16:                                               ; preds = %12
  store i32 2, ptr %9, align 4
  call void @llvm.lifetime.end.p0(i64 4, ptr %8) #7
  br label %37

17:                                               ; preds = %12
  call void @llvm.lifetime.start.p0(i64 8, ptr %10) #7
  %18 = load ptr, ptr %5, align 8, !tbaa !4
  %19 = getelementptr inbounds nuw %struct.VVCFrameContext, ptr %18, i32 0, i32 1
  %20 = load i32, ptr %8, align 4, !tbaa !11
  %21 = sext i32 %20 to i64
  %22 = getelementptr inbounds [17 x %struct.VVCFrame], ptr %19, i64 0, i64 %21
  store ptr %22, ptr %10, align 8, !tbaa !9
  %23 = load ptr, ptr %10, align 8, !tbaa !9
  %24 = load ptr, ptr %5, align 8, !tbaa !4
  %25 = getelementptr inbounds nuw %struct.VVCFrameContext, ptr %24, i32 0, i32 8
  %26 = load ptr, ptr %25, align 8, !tbaa !93
  %27 = icmp eq ptr %23, %26
  br i1 %27, label %28, label %29

28:                                               ; preds = %17
  store i32 4, ptr %9, align 4
  br label %31

29:                                               ; preds = %17
  %30 = load ptr, ptr %10, align 8, !tbaa !9
  call void @mark_ref(ptr noundef %30, i32 noundef 0)
  store i32 0, ptr %9, align 4
  br label %31

31:                                               ; preds = %29, %28
  call void @llvm.lifetime.end.p0(i64 8, ptr %10) #7
  %32 = load i32, ptr %9, align 4
  switch i32 %32, label %63 [
    i32 0, label %33
    i32 4, label %34
  ]

33:                                               ; preds = %31
  br label %34

34:                                               ; preds = %33, %31
  %35 = load i32, ptr %8, align 4, !tbaa !11
  %36 = add nsw i32 %35, 1
  store i32 %36, ptr %8, align 4, !tbaa !11
  br label %12, !llvm.loop !246

37:                                               ; preds = %16
  %38 = load ptr, ptr %4, align 8, !tbaa !73
  %39 = load ptr, ptr %5, align 8, !tbaa !4
  %40 = load ptr, ptr %6, align 8, !tbaa !189
  %41 = call i32 @ff_vvc_slice_rpl(ptr noundef %38, ptr noundef %39, ptr noundef %40)
  store i32 %41, ptr %7, align 4, !tbaa !11
  %42 = icmp slt i32 %41, 0
  br i1 %42, label %43, label %44

43:                                               ; preds = %37
  br label %45

44:                                               ; preds = %37
  br label %45

45:                                               ; preds = %44, %43
  call void @llvm.lifetime.start.p0(i64 4, ptr %11) #7
  store i32 0, ptr %11, align 4, !tbaa !11
  br label %46

46:                                               ; preds = %58, %45
  %47 = load i32, ptr %11, align 4, !tbaa !11
  %48 = sext i32 %47 to i64
  %49 = icmp ult i64 %48, 17
  br i1 %49, label %51, label %50

50:                                               ; preds = %46
  store i32 6, ptr %9, align 4
  call void @llvm.lifetime.end.p0(i64 4, ptr %11) #7
  br label %61

51:                                               ; preds = %46
  %52 = load ptr, ptr %5, align 8, !tbaa !4
  %53 = load ptr, ptr %5, align 8, !tbaa !4
  %54 = getelementptr inbounds nuw %struct.VVCFrameContext, ptr %53, i32 0, i32 1
  %55 = load i32, ptr %11, align 4, !tbaa !11
  %56 = sext i32 %55 to i64
  %57 = getelementptr inbounds [17 x %struct.VVCFrame], ptr %54, i64 0, i64 %56
  call void @ff_vvc_unref_frame(ptr noundef %52, ptr noundef %57, i32 noundef 0)
  br label %58

58:                                               ; preds = %51
  %59 = load i32, ptr %11, align 4, !tbaa !11
  %60 = add nsw i32 %59, 1
  store i32 %60, ptr %11, align 4, !tbaa !11
  br label %46, !llvm.loop !247

61:                                               ; preds = %50
  %62 = load i32, ptr %7, align 4, !tbaa !11
  store i32 1, ptr %9, align 4
  call void @llvm.lifetime.end.p0(i64 4, ptr %7) #7
  ret i32 %62

63:                                               ; preds = %31
  unreachable
}