; Function Attrs: nounwind uwtable
define range(i32 -1163346256, 1) i32 @ff_vvc_frame_rpl(ptr noundef readonly captures(none) %0, ptr noundef %1, ptr noundef captures(none) %2) local_unnamed_addr #0 {
  %4 = getelementptr inbounds nuw i8, ptr %1, i64 8
  %5 = getelementptr inbounds nuw i8, ptr %1, i64 18952
  %6 = load ptr, ptr %5, align 8, !tbaa !108
  br label %9

7:                                                ; preds = %16
  %8 = tail call i32 @ff_vvc_slice_rpl(ptr noundef %0, ptr noundef %1, ptr noundef %2)
  br label %18

9:                                                ; preds = %3, %16
  %indvars.iv = phi i64 [ 0, %3 ], [ %indvars.iv.next, %16 ]
  %10 = getelementptr inbounds nuw [17 x %struct.VVCFrame], ptr %4, i64 0, i64 %indvars.iv
  %11 = icmp eq ptr %10, %6
  br i1 %11, label %16, label %12

12:                                               ; preds = %9
  %13 = getelementptr inbounds nuw i8, ptr %10, i64 98
  %14 = load i8, ptr %13, align 2, !tbaa !23
  %15 = and i8 %14, -7
  store i8 %15, ptr %13, align 2, !tbaa !23
  br label %16

16:                                               ; preds = %9, %12
  %indvars.iv.next = add nuw nsw i64 %indvars.iv, 1
  %exitcond.not = icmp eq i64 %indvars.iv.next, 17
  br i1 %exitcond.not, label %7, label %9, !llvm.loop !234

17:                                               ; preds = %18
  ret i32 %8

18:                                               ; preds = %7, %18
  %indvars.iv22 = phi i64 [ 0, %7 ], [ %indvars.iv.next23, %18 ]
  %19 = getelementptr inbounds nuw [17 x %struct.VVCFrame], ptr %4, i64 0, i64 %indvars.iv22
  tail call void @ff_vvc_unref_frame(ptr poison, ptr noundef nonnull %19, i32 noundef 0)
  %indvars.iv.next23 = add nuw nsw i64 %indvars.iv22, 1
  %exitcond25.not = icmp eq i64 %indvars.iv.next23, 17
  br i1 %exitcond25.not, label %17, label %18, !llvm.loop !235
}